target datalayout = "e-m:e-p270:32:32-p271:32:32-p272:64:64-i64:64-i128:128-f80:128-n8:16:32:64-S128"
target triple = "x86_64-pc-linux-gnu"

%struct.ident_t = type { i32, i32, i32, i32, ptr }
%"class.gmx::ArrayRef" = type { %"struct.gmx::ArrayRefIter", %"struct.gmx::ArrayRefIter" }
%"struct.gmx::ArrayRefIter" = type { ptr }
%struct.gmx_pme_t = type { i32, i32, i32, i32, i32, i32, i32, ptr, [2 x ptr], ptr, i8, i32, i8, i8, i8, i8, i8, i8, i32, i32, i32, i8, i32, float, float, float, i32, float, i32, ptr, %"class.std::unique_ptr", i32, i32, i32, i32, i32, i32, i32, i32, %"class.std::unique_ptr.2", %"class.std::shared_ptr", %"class.std::vector", %"class.std::vector", %"class.std::vector.10", %"class.std::vector.15", %"class.std::vector.20", %"class.std::vector.20", %"class.std::vector.20", %"class.std::vector.25", %"class.std::vector.25", %"class.std::vector.25", %"class.std::vector.30", [3 x [3 x float]], float, %"struct.std::array", %"class.std::vector.35", %"class.std::vector.35", %"struct.std::array.37", %"class.std::unique_ptr.43", %"class.std::vector.51", %"class.std::vector.25", %"class.std::unique_ptr.56" }
%"class.std::unique_ptr" = type { %"struct.std::__uniq_ptr_data" }
%"struct.std::__uniq_ptr_data" = type { %"class.std::__uniq_ptr_impl" }
%"class.std::__uniq_ptr_impl" = type { %"class.std::tuple" }
%"class.std::tuple" = type { %"struct.std::_Tuple_impl" }
%"struct.std::_Tuple_impl" = type { %"struct.std::_Head_base.1" }
%"struct.std::_Head_base.1" = type { ptr }
%"class.std::unique_ptr.2" = type { %"struct.std::__uniq_ptr_data.3" }
%"struct.std::__uniq_ptr_data.3" = type { %"class.std::__uniq_ptr_impl.4" }
%"class.std::__uniq_ptr_impl.4" = type { %"class.std::tuple.5" }
%"class.std::tuple.5" = type { %"struct.std::_Tuple_impl.6" }
%"struct.std::_Tuple_impl.6" = type { %"struct.std::_Head_base.9" }
%"struct.std::_Head_base.9" = type { ptr }
%"class.std::shared_ptr" = type { %"class.std::__shared_ptr" }
%"class.std::__shared_ptr" = type { ptr, %"class.std::__shared_count" }
%"class.std::__shared_count" = type { ptr }
%"class.std::vector" = type { %"struct.std::_Vector_base" }
%"struct.std::_Vector_base" = type { %"struct.std::_Vector_base<PmeAndFftGrids, std::allocator<PmeAndFftGrids>>::_Vector_impl" }
%"struct.std::_Vector_base<PmeAndFftGrids, std::allocator<PmeAndFftGrids>>::_Vector_impl" = type { %"struct.std::_Vector_base<PmeAndFftGrids, std::allocator<PmeAndFftGrids>>::_Vector_impl_data" }
%"struct.std::_Vector_base<PmeAndFftGrids, std::allocator<PmeAndFftGrids>>::_Vector_impl_data" = type { ptr, ptr, ptr }
%"class.std::vector.10" = type { %"struct.std::_Vector_base.11" }
%"struct.std::_Vector_base.11" = type { %"struct.std::_Vector_base<gmx_pme_t::GridsRef, std::allocator<gmx_pme_t::GridsRef>>::_Vector_impl" }
%"struct.std::_Vector_base<gmx_pme_t::GridsRef, std::allocator<gmx_pme_t::GridsRef>>::_Vector_impl" = type { %"struct.std::_Vector_base<gmx_pme_t::GridsRef, std::allocator<gmx_pme_t::GridsRef>>::_Vector_impl_data" }
%"struct.std::_Vector_base<gmx_pme_t::GridsRef, std::allocator<gmx_pme_t::GridsRef>>::_Vector_impl_data" = type { ptr, ptr, ptr }
%"class.std::vector.15" = type { %"struct.std::_Vector_base.16" }
%"struct.std::_Vector_base.16" = type { %"struct.std::_Vector_base<t_complex *, std::allocator<t_complex *>>::_Vector_impl" }
%"struct.std::_Vector_base<t_complex *, std::allocator<t_complex *>>::_Vector_impl" = type { %"struct.std::_Vector_base<t_complex *, std::allocator<t_complex *>>::_Vector_impl_data" }
%"struct.std::_Vector_base<t_complex *, std::allocator<t_complex *>>::_Vector_impl_data" = type { ptr, ptr, ptr }
%"class.std::vector.20" = type { %"struct.std::_Vector_base.21" }
%"struct.std::_Vector_base.21" = type { %"struct.std::_Vector_base<int, std::allocator<int>>::_Vector_impl" }
%"struct.std::_Vector_base<int, std::allocator<int>>::_Vector_impl" = type { %"struct.std::_Vector_base<int, std::allocator<int>>::_Vector_impl_data" }
%"struct.std::_Vector_base<int, std::allocator<int>>::_Vector_impl_data" = type { ptr, ptr, ptr }
%"class.std::vector.30" = type { %"struct.std::_Vector_base.31" }
%"struct.std::_Vector_base.31" = type { %"struct.std::_Vector_base<PmeAtomComm, std::allocator<PmeAtomComm>>::_Vector_impl" }
%"struct.std::_Vector_base<PmeAtomComm, std::allocator<PmeAtomComm>>::_Vector_impl" = type { %"struct.std::_Vector_base<PmeAtomComm, std::allocator<PmeAtomComm>>::_Vector_impl_data" }
%"struct.std::_Vector_base<PmeAtomComm, std::allocator<PmeAtomComm>>::_Vector_impl_data" = type { ptr, ptr, ptr }
%"struct.std::array" = type { [3 x %"class.std::vector.25"] }
%"class.std::vector.35" = type { %"struct.std::_Vector_base.36" }
%"struct.std::_Vector_base.36" = type { %"struct.std::_Vector_base<float, gmx::DefaultInitializationAllocator<float>>::_Vector_impl" }
%"struct.std::_Vector_base<float, gmx::DefaultInitializationAllocator<float>>::_Vector_impl" = type { %"struct.std::_Vector_base<float, gmx::DefaultInitializationAllocator<float>>::_Vector_impl_data" }
%"struct.std::_Vector_base<float, gmx::DefaultInitializationAllocator<float>>::_Vector_impl_data" = type { ptr, ptr, ptr }
%"struct.std::array.37" = type { [2 x %struct.pme_overlap_t] }
%struct.pme_overlap_t = type { ptr, i32, i32, %"class.std::vector.20", %"class.std::vector.20", i32, %"class.std::vector.38", %"class.std::vector.25", %"class.std::vector.25" }
%"class.std::vector.38" = type { %"struct.std::_Vector_base.39" }
%"struct.std::_Vector_base.39" = type { %"struct.std::_Vector_base<pme_grid_comm_t, std::allocator<pme_grid_comm_t>>::_Vector_impl" }
%"struct.std::_Vector_base<pme_grid_comm_t, std::allocator<pme_grid_comm_t>>::_Vector_impl" = type { %"struct.std::_Vector_base<pme_grid_comm_t, std::allocator<pme_grid_comm_t>>::_Vector_impl_data" }
%"struct.std::_Vector_base<pme_grid_comm_t, std::allocator<pme_grid_comm_t>>::_Vector_impl_data" = type { ptr, ptr, ptr }
%"class.std::unique_ptr.43" = type { %"struct.std::__uniq_ptr_data.44" }
%"struct.std::__uniq_ptr_data.44" = type { %"class.std::__uniq_ptr_impl.45" }
%"class.std::__uniq_ptr_impl.45" = type { %"class.std::tuple.46" }
%"class.std::tuple.46" = type { %"struct.std::_Tuple_impl.47" }
%"struct.std::_Tuple_impl.47" = type { %"struct.std::_Head_base.50" }
%"struct.std::_Head_base.50" = type { ptr }
%"class.std::vector.51" = type { %"struct.std::_Vector_base.52" }
%"struct.std::_Vector_base.52" = type { %"struct.std::_Vector_base<gmx::BasicVector<float>, std::allocator<gmx::BasicVector<float>>>::_Vector_impl" }
%"struct.std::_Vector_base<gmx::BasicVector<float>, std::allocator<gmx::BasicVector<float>>>::_Vector_impl" = type { %"struct.std::_Vector_base<gmx::BasicVector<float>, std::allocator<gmx::BasicVector<float>>>::_Vector_impl_data" }
%"struct.std::_Vector_base<gmx::BasicVector<float>, std::allocator<gmx::BasicVector<float>>>::_Vector_impl_data" = type { ptr, ptr, ptr }
%"class.std::vector.25" = type { %"struct.std::_Vector_base.26" }
%"struct.std::_Vector_base.26" = type { %"struct.std::_Vector_base<float, std::allocator<float>>::_Vector_impl" }
%"struct.std::_Vector_base<float, std::allocator<float>>::_Vector_impl" = type { %"struct.std::_Vector_base<float, std::allocator<float>>::_Vector_impl_data" }
%"struct.std::_Vector_base<float, std::allocator<float>>::_Vector_impl_data" = type { ptr, ptr, ptr }
%"class.std::unique_ptr.56" = type { %"struct.std::__uniq_ptr_data.57" }
%"struct.std::__uniq_ptr_data.57" = type { %"class.std::__uniq_ptr_impl.58" }
%"class.std::__uniq_ptr_impl.58" = type { %"class.std::tuple.59" }
%"class.std::tuple.59" = type { %"struct.std::_Tuple_impl.60" }
%"struct.std::_Tuple_impl.60" = type { %"struct.std::_Head_base.63" }
%"struct.std::_Head_base.63" = type { ptr }

@1 = private unnamed_addr constant %struct.ident_t { i32 0, i32 514, i32 0, i32 22, ptr @0 }, align 8

; Function Attrs: mustprogress nounwind uwtable
define linkonce_odr noundef nonnull align 4 dereferenceable(4) ptr @_ZNK3gmx12ArrayRefIterIfEdeEv(ptr noundef nonnull align 8 dereferenceable(8) %0) #2 comdat align 2 {
  %2 = alloca ptr, align 8
  store ptr %0, ptr %2, align 8, !tbaa !147
  %3 = load ptr, ptr %2, align 8
  %4 = getelementptr inbounds nuw %"struct.gmx::ArrayRefIter", ptr %3, i32 0, i32 0
  %5 = load ptr, ptr %4, align 8, !tbaa !149
  ret ptr %5
}

; Function Attrs: mustprogress nounwind uwtable
define linkonce_odr noundef nonnull align 8 dereferenceable(8) ptr @_ZN3gmx12ArrayRefIterIfEpLEl(ptr noundef nonnull align 8 dereferenceable(8) %0, i64 noundef %1) #2 comdat align 2 {
  %3 = alloca ptr, align 8
  %4 = alloca i64, align 8
  store ptr %0, ptr %3, align 8, !tbaa !147
  store i64 %1, ptr %4, align 8, !tbaa !13
  %5 = load ptr, ptr %3, align 8
  %6 = load i64, ptr %4, align 8, !tbaa !13
  %7 = getelementptr inbounds nuw %"struct.gmx::ArrayRefIter", ptr %5, i32 0, i32 0
  %8 = load ptr, ptr %7, align 8, !tbaa !149
  %9 = getelementptr inbounds float, ptr %8, i64 %6
  store ptr %9, ptr %7, align 8, !tbaa !149
  ret ptr %5
}

; Function Attrs: mustprogress nounwind uwtable
define linkonce_odr noundef nonnull align 8 dereferenceable(8) ptr @_ZNK3gmx5boost14stl_interfaces2v118iterator_interfaceINS_12ArrayRefIterIfEESt26random_access_iterator_tagfRfPflvE7derivedEv(ptr noundef nonnull align 1 dereferenceable(1) %0) #2 comdat align 2 {
  %2 = alloca ptr, align 8
  store ptr %0, ptr %2, align 8, !tbaa !145
  %3 = load ptr, ptr %2, align 8
  ret ptr %3
}

; Function Attrs: mustprogress nounwind uwtable
define linkonce_odr noundef nonnull align 4 dereferenceable(4) ptr @_ZNK3gmx5boost14stl_interfaces2v118iterator_interfaceINS_12ArrayRefIterIfEESt26random_access_iterator_tagfRfPflvEixIS5_EEDTcmpLclsr3stdE7declvalIRT_EEfp_declsr3stdE7declvalISC_EEEl(ptr noundef nonnull align 1 dereferenceable(1) %0, i64 noundef %1) #2 comdat align 2 {
  %3 = alloca ptr, align 8
  %4 = alloca i64, align 8
  %5 = alloca %"struct.gmx::ArrayRefIter", align 8
  store ptr %0, ptr %3, align 8, !tbaa !145
  store i64 %1, ptr %4, align 8, !tbaa !13
  %6 = load ptr, ptr %3, align 8
  call void @llvm.lifetime.start.p0(i64 8, ptr %5) #7
  %7 = call noundef nonnull align 8 dereferenceable(8) ptr @_ZNK3gmx5boost14stl_interfaces2v118iterator_interfaceINS_12ArrayRefIterIfEESt26random_access_iterator_tagfRfPflvE7derivedEv(ptr noundef nonnull align 1 dereferenceable(1) %6) #7
  call void @llvm.memcpy.p0.p0.i64(ptr align 8 %5, ptr align 8 %7, i64 8, i1 false)
  %8 = load i64, ptr %4, align 8, !tbaa !13
  %9 = call noundef nonnull align 8 dereferenceable(8) ptr @_ZN3gmx12ArrayRefIterIfEpLEl(ptr noundef nonnull align 8 dereferenceable(8) %5, i64 noundef %8) #7
  %10 = call noundef nonnull align 4 dereferenceable(4) ptr @_ZNK3gmx12ArrayRefIterIfEdeEv(ptr noundef nonnull align 8 dereferenceable(8) %5) #7
  call void @llvm.lifetime.end.p0(i64 8, ptr %5) #7
  ret ptr %10
}

; Function Attrs: mustprogress nounwind uwtable
define linkonce_odr noundef nonnull align 4 dereferenceable(4) ptr @_ZNK3gmx8ArrayRefIfEixEm(ptr noundef nonnull align 8 dereferenceable(16) %0, i64 noundef %1) #2 comdat align 2 {
  %3 = alloca ptr, align 8
  %4 = alloca i64, align 8
  store ptr %0, ptr %3, align 8, !tbaa !140
  store i64 %1, ptr %4, align 8, !tbaa !13
  %5 = load ptr, ptr %3, align 8
  %6 = getelementptr inbounds nuw %"class.gmx::ArrayRef", ptr %5, i32 0, i32 0
  %7 = load i64, ptr %4, align 8, !tbaa !13
  %8 = call noundef nonnull align 4 dereferenceable(4) ptr @_ZNK3gmx5boost14stl_interfaces2v118iterator_interfaceINS_12ArrayRefIterIfEESt26random_access_iterator_tagfRfPflvEixIS5_EEDTcmpLclsr3stdE7declvalIRT_EEfp_declsr3stdE7declvalISC_EEEl(ptr noundef nonnull align 1 dereferenceable(1) %6, i64 noundef %7) #7
  ret ptr %8
}

; Function Attrs: alwaysinline norecurse nounwind uwtable
define internal void @_Z23unwrap_periodic_pmegridP9gmx_pme_tN3gmx8ArrayRefIfEE.omp_outlined(ptr noalias noundef %0, ptr noalias noundef %1, ptr noundef nonnull align 8 dereferenceable(8) %2, ptr noundef nonnull align 4 dereferenceable(4) %3, ptr noundef nonnull align 4 dereferenceable(4) %4, ptr noundef nonnull align 8 dereferenceable(16) %5, ptr noundef nonnull align 4 dereferenceable(4) %6, ptr noundef nonnull align 4 dereferenceable(4) %7, ptr noundef nonnull align 4 dereferenceable(4) %8) #6 {
  %10 = alloca ptr, align 8
  %11 = alloca ptr, align 8
  %12 = alloca ptr, align 8
  %13 = alloca ptr, align 8
  %14 = alloca ptr, align 8
  %15 = alloca ptr, align 8
  %16 = alloca ptr, align 8
  %17 = alloca ptr, align 8
  %18 = alloca ptr, align 8
  %19 = alloca i32, align 4
  %20 = alloca i32, align 4
  %21 = alloca i32, align 4
  %22 = alloca i32, align 4
  %23 = alloca i32, align 4
  %24 = alloca i32, align 4
  %25 = alloca i32, align 4
  %26 = alloca i32, align 4
  %27 = alloca i32, align 4
  %28 = alloca i32, align 4
  %29 = alloca i32, align 4
  store ptr %0, ptr %10, align 8, !tbaa !205
  store ptr %1, ptr %11, align 8, !tbaa !205
  store ptr %2, ptr %12, align 8, !tbaa !206
  store ptr %3, ptr %13, align 8, !tbaa !205
  store ptr %4, ptr %14, align 8, !tbaa !205
  store ptr %5, ptr %15, align 8, !tbaa !140
  store ptr %6, ptr %16, align 8, !tbaa !205
  store ptr %7, ptr %17, align 8, !tbaa !205
  store ptr %8, ptr %18, align 8, !tbaa !205
  %30 = load ptr, ptr %12, align 8, !tbaa !206
  %31 = load ptr, ptr %13, align 8, !tbaa !205
  %32 = load ptr, ptr %14, align 8, !tbaa !205
  %33 = load ptr, ptr %15, align 8, !tbaa !140
  %34 = load ptr, ptr %16, align 8, !tbaa !205
  %35 = load ptr, ptr %17, align 8, !tbaa !205
  %36 = load ptr, ptr %18, align 8, !tbaa !205
  call void @llvm.lifetime.start.p0(i64 4, ptr %19) #7
  call void @llvm.lifetime.start.p0(i64 4, ptr %20) #7
  %37 = load ptr, ptr %30, align 8, !tbaa !4
  %38 = getelementptr inbounds nuw %struct.gmx_pme_t, ptr %37, i32 0, i32 32
  %39 = load i32, ptr %38, align 4, !tbaa !115
  store i32 %39, ptr %20, align 4, !tbaa !9
  call void @llvm.lifetime.start.p0(i64 4, ptr %21) #7
  %40 = load i32, ptr %20, align 4, !tbaa !9
  %41 = sub nsw i32 %40, 0
  %42 = sdiv i32 %41, 1
  %43 = sub nsw i32 %42, 1
  store i32 %43, ptr %21, align 4, !tbaa !9
  call void @llvm.lifetime.start.p0(i64 4, ptr %22) #7
  store i32 0, ptr %22, align 4, !tbaa !9
  call void @llvm.lifetime.end.p0(i64 4, ptr %22) #7
  %44 = load i32, ptr %20, align 4, !tbaa !9
  %45 = icmp slt i32 0, %44
  br i1 %45, label %46, label %120

46:                                               ; preds = %9
  call void @llvm.lifetime.start.p0(i64 4, ptr %23) #7
  store i32 0, ptr %23, align 4, !tbaa !9
  call void @llvm.lifetime.start.p0(i64 4, ptr %24) #7
  %47 = load i32, ptr %21, align 4, !tbaa !9
  store i32 %47, ptr %24, align 4, !tbaa !9
  call void @llvm.lifetime.start.p0(i64 4, ptr %25) #7
  store i32 1, ptr %25, align 4, !tbaa !9
  call void @llvm.lifetime.start.p0(i64 4, ptr %26) #7
  store i32 0, ptr %26, align 4, !tbaa !9
  call void @llvm.lifetime.start.p0(i64 4, ptr %27) #7
  %48 = load ptr, ptr %10, align 8
  %49 = load i32, ptr %48, align 4, !tbaa !9
  call void @__kmpc_for_static_init_4(ptr @1, i32 %49, i32 34, ptr %26, ptr %23, ptr %24, ptr %25, i32 1, i32 1)
  %50 = load i32, ptr %24, align 4, !tbaa !9
  %51 = load i32, ptr %21, align 4, !tbaa !9
  %52 = icmp sgt i32 %50, %51
  br i1 %52, label %53, label %55

53:                                               ; preds = %46
  %54 = load i32, ptr %21, align 4, !tbaa !9
  br label %57

55:                                               ; preds = %46
  %56 = load i32, ptr %24, align 4, !tbaa !9
  br label %57

57:                                               ; preds = %55, %53
  %58 = phi i32 [ %54, %53 ], [ %56, %55 ]
  store i32 %58, ptr %24, align 4, !tbaa !9
  %59 = load i32, ptr %23, align 4, !tbaa !9
  store i32 %59, ptr %19, align 4, !tbaa !9
  br label %60

60:                                               ; preds = %113, %57
  %61 = load i32, ptr %19, align 4, !tbaa !9
  %62 = load i32, ptr %24, align 4, !tbaa !9
  %63 = icmp sle i32 %61, %62
  br i1 %63, label %65, label %64

64:                                               ; preds = %60
  br label %116

65:                                               ; preds = %60
  %66 = load i32, ptr %19, align 4, !tbaa !9
  %67 = mul nsw i32 %66, 1
  %68 = add nsw i32 0, %67
  store i32 %68, ptr %27, align 4, !tbaa !9
  call void @llvm.lifetime.start.p0(i64 4, ptr %28) #7
  call void @llvm.lifetime.start.p0(i64 4, ptr %29) #7
  store i32 0, ptr %28, align 4, !tbaa !9
  br label %69

69:                                               ; preds = %108, %65
  %70 = load i32, ptr %28, align 4, !tbaa !9
  %71 = load i32, ptr %31, align 4, !tbaa !9
  %72 = icmp slt i32 %70, %71
  br i1 %72, label %73, label %111

73:                                               ; preds = %69
  store i32 0, ptr %29, align 4, !tbaa !9
  br label %74

74:                                               ; preds = %104, %73
  %75 = load i32, ptr %29, align 4, !tbaa !9
  %76 = load i32, ptr %32, align 4, !tbaa !9
  %77 = icmp slt i32 %75, %76
  br i1 %77, label %78, label %107

78:                                               ; preds = %74
  %79 = load i32, ptr %27, align 4, !tbaa !9
  %80 = load i32, ptr %34, align 4, !tbaa !9
  %81 = mul nsw i32 %79, %80
  %82 = load i32, ptr %28, align 4, !tbaa !9
  %83 = add nsw i32 %81, %82
  %84 = load i32, ptr %36, align 4, !tbaa !9
  %85 = mul nsw i32 %83, %84
  %86 = load i32, ptr %29, align 4, !tbaa !9
  %87 = add nsw i32 %85, %86
  %88 = sext i32 %87 to i64
  %89 = call noundef nonnull align 4 dereferenceable(4) ptr @_ZNK3gmx8ArrayRefIfEixEm(ptr noundef nonnull align 8 dereferenceable(16) %33, i64 noundef %88)
  %90 = load float, ptr %89, align 4, !tbaa !119
  %91 = load i32, ptr %27, align 4, !tbaa !9
  %92 = load i32, ptr %34, align 4, !tbaa !9
  %93 = mul nsw i32 %91, %92
  %94 = load i32, ptr %35, align 4, !tbaa !9
  %95 = add nsw i32 %93, %94
  %96 = load i32, ptr %28, align 4, !tbaa !9
  %97 = add nsw i32 %95, %96
  %98 = load i32, ptr %36, align 4, !tbaa !9
  %99 = mul nsw i32 %97, %98
  %100 = load i32, ptr %29, align 4, !tbaa !9
  %101 = add nsw i32 %99, %100
  %102 = sext i32 %101 to i64
  %103 = call noundef nonnull align 4 dereferenceable(4) ptr @_ZNK3gmx8ArrayRefIfEixEm(ptr noundef nonnull align 8 dereferenceable(16) %33, i64 noundef %102)
  store float %90, ptr %103, align 4, !tbaa !119
  br label %104

104:                                              ; preds = %78
  %105 = load i32, ptr %29, align 4, !tbaa !9
  %106 = add nsw i32 %105, 1
  store i32 %106, ptr %29, align 4, !tbaa !9
  br label %74, !llvm.loop !208

107:                                              ; preds = %74
  br label %108

108:                                              ; preds = %107
  %109 = load i32, ptr %28, align 4, !tbaa !9
  %110 = add nsw i32 %109, 1
  store i32 %110, ptr %28, align 4, !tbaa !9
  br label %69, !llvm.loop !209

111:                                              ; preds = %69
  call void @llvm.lifetime.end.p0(i64 4, ptr %29) #7
  call void @llvm.lifetime.end.p0(i64 4, ptr %28) #7
  br label %112

112:                                              ; preds = %111
  br label %113

113:                                              ; preds = %112
  %114 = load i32, ptr %19, align 4, !tbaa !9
  %115 = add nsw i32 %114, 1
  store i32 %115, ptr %19, align 4, !tbaa !9
  br label %60

116:                                              ; preds = %64
  br label %117

117:                                              ; preds = %116
  %118 = load ptr, ptr %10, align 8
  %119 = load i32, ptr %118, align 4, !tbaa !9
  call void @__kmpc_for_static_fini(ptr @1, i32 %119)
  call void @llvm.lifetime.end.p0(i64 4, ptr %27) #7
  call void @llvm.lifetime.end.p0(i64 4, ptr %26) #7
  call void @llvm.lifetime.end.p0(i64 4, ptr %25) #7
  call void @llvm.lifetime.end.p0(i64 4, ptr %24) #7
  call void @llvm.lifetime.end.p0(i64 4, ptr %23) #7
  br label %120

120:                                              ; preds = %117, %9
  call void @llvm.lifetime.end.p0(i64 4, ptr %21) #7
  call void @llvm.lifetime.end.p0(i64 4, ptr %20) #7
  call void @llvm.lifetime.end.p0(i64 4, ptr %19) #7
  ret void
}