; Function Attrs: alwaysinline norecurse nounwind uwtable
define internal void @_Z23unwrap_periodic_pmegridP9gmx_pme_tN3gmx8ArrayRefIfEE.omp_outlined(ptr noalias noundef readonly captures(none) %0, ptr noalias readnone captures(none) %1, ptr noundef nonnull readonly align 8 captures(none) dereferenceable(8) %2, ptr noundef nonnull readonly align 4 captures(none) dereferenceable(4) %3, ptr noundef nonnull readonly align 4 captures(none) dereferenceable(4) %4, ptr noundef nonnull readonly align 8 captures(none) dereferenceable(16) %5, ptr noundef nonnull readonly align 4 captures(none) dereferenceable(4) %6, ptr noundef nonnull readonly align 4 captures(none) dereferenceable(4) %7, ptr noundef nonnull readonly align 4 captures(none) dereferenceable(4) %8) #7 {
  %10 = alloca i32, align 4
  %11 = alloca i32, align 4
  %12 = alloca i32, align 4
  %13 = alloca i32, align 4
  %14 = load ptr, ptr %2, align 8, !tbaa !166
  %15 = getelementptr inbounds nuw i8, ptr %14, i64 148
  %16 = load i32, ptr %15, align 4, !tbaa !104
  %17 = icmp sgt i32 %16, 0
  br i1 %17, label %18, label %48

18:                                               ; preds = %9
  %19 = add nsw i32 %16, -1
  call void @llvm.lifetime.start.p0(i64 4, ptr nonnull %10) #8
  store i32 0, ptr %10, align 4, !tbaa !11
  call void @llvm.lifetime.start.p0(i64 4, ptr nonnull %11) #8
  store i32 %19, ptr %11, align 4, !tbaa !11
  call void @llvm.lifetime.start.p0(i64 4, ptr nonnull %12) #8
  store i32 1, ptr %12, align 4, !tbaa !11
  call void @llvm.lifetime.start.p0(i64 4, ptr nonnull %13) #8
  store i32 0, ptr %13, align 4, !tbaa !11
  %20 = load i32, ptr %0, align 4, !tbaa !11
  call void @__kmpc_for_static_init_4(ptr nonnull @1, i32 %20, i32 34, ptr nonnull %13, ptr nonnull %10, ptr nonnull %11, ptr nonnull %12, i32 1, i32 1)
  %21 = load i32, ptr %11, align 4, !tbaa !11
  %22 = call i32 @llvm.smin.i32(i32 %21, i32 %19)
  store i32 %22, ptr %11, align 4, !tbaa !11
  %23 = load i32, ptr %10, align 4, !tbaa !11
  %.not32 = icmp sgt i32 %23, %22
  br i1 %.not32, label %._crit_edge, label %.preheader28.lr.ph

.preheader28.lr.ph:                               ; preds = %18
  %24 = load i32, ptr %3, align 4, !tbaa !11
  %25 = icmp sgt i32 %24, 0
  %26 = load i32, ptr %4, align 4
  %27 = icmp sgt i32 %26, 0
  %or.cond = select i1 %25, i1 %27, i1 false
  br i1 %or.cond, label %.preheader28.us.us.preheader, label %._crit_edge

.preheader28.us.us.preheader:                     ; preds = %.preheader28.lr.ph
  %wide.trip.count44 = zext nneg i32 %24 to i64
  %wide.trip.count = zext nneg i32 %26 to i64
  br label %.preheader28.us.us

.preheader28.us.us:                               ; preds = %.preheader28.us.us.preheader, %._crit_edge31.split.us.us.us
  %.02733.us.us = phi i32 [ %47, %._crit_edge31.split.us.us.us ], [ %23, %.preheader28.us.us.preheader ]
  %28 = load i32, ptr %6, align 4
  %29 = mul nsw i32 %28, %.02733.us.us
  %30 = load i32, ptr %8, align 4
  %31 = load i32, ptr %7, align 4
  %invariant.op.us.us = add i32 %29, %31
  %32 = sext i32 %29 to i64
  %33 = sext i32 %30 to i64
  br label %.preheader.us.us.us

.preheader.us.us.us:                              ; preds = %._crit_edge.us.us.us, %.preheader28.us.us
  %indvars.iv41 = phi i64 [ %indvars.iv.next42, %._crit_edge.us.us.us ], [ 0, %.preheader28.us.us ]
  %34 = add nsw i64 %indvars.iv41, %32
  %35 = mul nsw i64 %34, %33
  %36 = trunc nuw nsw i64 %indvars.iv41 to i32
  %.reass.us.us.us = add i32 %invariant.op.us.us, %36
  %37 = mul nsw i32 %.reass.us.us.us, %30
  %38 = sext i32 %37 to i64
  br label %39

39:                                               ; preds = %39, %.preheader.us.us.us
  %indvars.iv = phi i64 [ %indvars.iv.next, %39 ], [ 0, %.preheader.us.us.us ]
  %40 = load i64, ptr %5, align 8
  %41 = inttoptr i64 %40 to ptr
  %42 = getelementptr float, ptr %41, i64 %35
  %43 = getelementptr float, ptr %42, i64 %indvars.iv
  %44 = load float, ptr %43, align 4, !tbaa !109
  %45 = getelementptr float, ptr %41, i64 %indvars.iv
  %46 = getelementptr float, ptr %45, i64 %38
  store float %44, ptr %46, align 4, !tbaa !109
  %indvars.iv.next = add nuw nsw i64 %indvars.iv, 1
  %exitcond.not = icmp eq i64 %indvars.iv.next, %wide.trip.count
  br i1 %exitcond.not, label %._crit_edge.us.us.us, label %39, !llvm.loop !172

._crit_edge.us.us.us:                             ; preds = %39
  %indvars.iv.next42 = add nuw nsw i64 %indvars.iv41, 1
  %exitcond45.not = icmp eq i64 %indvars.iv.next42, %wide.trip.count44
  br i1 %exitcond45.not, label %._crit_edge31.split.us.us.us, label %.preheader.us.us.us, !llvm.loop !173

._crit_edge31.split.us.us.us:                     ; preds = %._crit_edge.us.us.us
  %47 = add i32 %.02733.us.us, 1
  %exitcond46.not = icmp eq i32 %.02733.us.us, %22
  br i1 %exitcond46.not, label %._crit_edge, label %.preheader28.us.us

._crit_edge:                                      ; preds = %._crit_edge31.split.us.us.us, %.preheader28.lr.ph, %18
  call void @__kmpc_for_static_fini(ptr nonnull @1, i32 %20)
  call void @llvm.lifetime.end.p0(i64 4, ptr nonnull %13) #8
  call void @llvm.lifetime.end.p0(i64 4, ptr nonnull %12) #8
  call void @llvm.lifetime.end.p0(i64 4, ptr nonnull %11) #8
  call void @llvm.lifetime.end.p0(i64 4, ptr nonnull %10) #8
  br label %48

48:                                               ; preds = %._crit_edge, %9
  ret void
}